target datalayout = "e-m:e-p270:32:32-p271:32:32-p272:64:64-i64:64-i128:128-f80:128-n8:16:32:64-S128"
target triple = "x86_64-pc-linux-gnu"

%struct.archive_write = type { %struct.archive, i32, i64, i64, ptr, i64, ptr, ptr, ptr, ptr, ptr, i32, i32, ptr, ptr, ptr, ptr, ptr, ptr, ptr, ptr, ptr, ptr, ptr, ptr, ptr, ptr }
%struct.archive = type { i32, i32, ptr, i32, ptr, i32, i32, ptr, %struct.archive_string, ptr, i32, i32, ptr, ptr, i64, i64, i64, i8, i64 }
%struct.archive_string = type { ptr, i64, i64 }
%struct.ustar = type { i64, i64, ptr, ptr, i32 }

; Function Attrs: nounwind uwtable
define internal i32 @archive_write_ustar_finish_entry(ptr noundef %0) #0 {
  %2 = alloca ptr, align 8
  %3 = alloca ptr, align 8
  %4 = alloca i32, align 4
  store ptr %0, ptr %2, align 8, !tbaa !9
  call void @llvm.lifetime.start.p0(i64 8, ptr %3) #8
  call void @llvm.lifetime.start.p0(i64 4, ptr %4) #8
  %5 = load ptr, ptr %2, align 8, !tbaa !9
  %6 = getelementptr inbounds nuw %struct.archive_write, ptr %5, i32 0, i32 15
  %7 = load ptr, ptr %6, align 8, !tbaa !24
  store ptr %7, ptr %3, align 8, !tbaa !22
  %8 = load ptr, ptr %2, align 8, !tbaa !9
  %9 = load ptr, ptr %3, align 8, !tbaa !22
  %10 = getelementptr inbounds nuw %struct.ustar, ptr %9, i32 0, i32 0
  %11 = load i64, ptr %10, align 8, !tbaa !46
  %12 = load ptr, ptr %3, align 8, !tbaa !22
  %13 = getelementptr inbounds nuw %struct.ustar, ptr %12, i32 0, i32 1
  %14 = load i64, ptr %13, align 8, !tbaa !47
  %15 = add i64 %11, %14
  %16 = call i32 @__archive_write_nulls(ptr noundef %8, i64 noundef %15)
  store i32 %16, ptr %4, align 4, !tbaa !11
  %17 = load ptr, ptr %3, align 8, !tbaa !22
  %18 = getelementptr inbounds nuw %struct.ustar, ptr %17, i32 0, i32 1
  store i64 0, ptr %18, align 8, !tbaa !47
  %19 = load ptr, ptr %3, align 8, !tbaa !22
  %20 = getelementptr inbounds nuw %struct.ustar, ptr %19, i32 0, i32 0
  store i64 0, ptr %20, align 8, !tbaa !46
  %21 = load i32, ptr %4, align 4, !tbaa !11
  call void @llvm.lifetime.end.p0(i64 4, ptr %4) #8
  call void @llvm.lifetime.end.p0(i64 8, ptr %3) #8
  ret i32 %21
}