; Function Attrs: nounwind uwtable
define internal i32 @archive_write_ustar_finish_entry(ptr noundef %0) #0 {
  %2 = getelementptr inbounds nuw i8, ptr %0, i64 248
  %3 = load ptr, ptr %2, align 8, !tbaa !17
  %4 = load i64, ptr %3, align 8, !tbaa !33
  %5 = getelementptr inbounds nuw i8, ptr %3, i64 8
  %6 = load i64, ptr %5, align 8, !tbaa !34
  %7 = add i64 %6, %4
  %8 = tail call i32 @__archive_write_nulls(ptr noundef %0, i64 noundef %7) #11
  tail call void @llvm.memset.p0.i64(ptr noundef nonnull align 8 dereferenceable(16) %3, i8 0, i64 16, i1 false)
  ret i32 %8
}